; Function Attrs: nounwind uwtable
define void @Lms_GiaProfilesPrint(ptr noundef readonly captures(none) %0) local_unnamed_addr #0 {
  %2 = tail call ptr @Lms_GiaDelays(ptr noundef %0)
  %3 = tail call ptr @Lms_GiaAreas(ptr noundef %0)
  %4 = getelementptr i8, ptr %0, i64 32
  %5 = getelementptr i8, ptr %0, i64 16
  %6 = getelementptr i8, ptr %0, i64 72
  %.val1722 = load i32, ptr %5, align 8
  %.val1823 = load ptr, ptr %6, align 8
  %7 = getelementptr i8, ptr %.val1823, i64 4
  %.val18.val24 = load i32, ptr %7, align 4
  %8 = icmp sgt i32 %.val18.val24, %.val1722
  br i1 %8, label %.lr.ph, label %.critedge

.lr.ph:                                           ; preds = %1
  %9 = getelementptr i8, ptr %3, i64 8
  %10 = getelementptr i8, ptr %2, i64 8
  %11 = getelementptr i8, ptr %0, i64 64
  br label %12

12:                                               ; preds = %.lr.ph, %Lms_DelayPrint.exit
  %indvars.iv = phi i64 [ 0, %.lr.ph ], [ %indvars.iv.next, %Lms_DelayPrint.exit ]
  %.val14 = load ptr, ptr %4, align 8
  %.not = icmp eq ptr %.val14, null
  br i1 %.not, label %.critedge, label %13

13:                                               ; preds = %12
  %14 = trunc nuw nsw i64 %indvars.iv to i32
  %15 = tail call i32 (ptr, ...) @printf(ptr noundef nonnull dereferenceable(1) @.str, i32 noundef %14)
  %.val16 = load ptr, ptr %9, align 8
  %16 = getelementptr inbounds nuw i8, ptr %.val16, i64 %indvars.iv
  %17 = load i8, ptr %16, align 1
  %18 = sext i8 %17 to i32
  %19 = tail call i32 (ptr, ...) @printf(ptr noundef nonnull dereferenceable(1) @.str.1, i32 noundef %18)
  %.val = load ptr, ptr %10, align 8
  %20 = getelementptr inbounds nuw i64, ptr %.val, i64 %indvars.iv
  %21 = load i64, ptr %20, align 8
  %.val19 = load i32, ptr %5, align 8
  %.val20 = load ptr, ptr %11, align 8
  %22 = getelementptr i8, ptr %.val20, i64 4
  %.val20.val = load i32, ptr %22, align 4
  %23 = sub nsw i32 %.val20.val, %.val19
  %24 = tail call i32 (ptr, ...) @printf(ptr noundef nonnull dereferenceable(1) @.str.46)
  %25 = icmp sgt i32 %23, 0
  br i1 %25, label %.lr.ph.preheader.i, label %Lms_DelayPrint.exit

.lr.ph.preheader.i:                               ; preds = %13
  %wide.trip.count.i = zext nneg i32 %23 to i64
  br label %.lr.ph.i

.lr.ph.i:                                         ; preds = %.lr.ph.i, %.lr.ph.preheader.i
  %indvars.iv.i = phi i64 [ 0, %.lr.ph.preheader.i ], [ %indvars.iv.next.i, %.lr.ph.i ]
  %26 = shl i64 %indvars.iv.i, 2
  %27 = and i64 %26, 4294967292
  %28 = lshr i64 %21, %27
  %29 = trunc i64 %28 to i32
  %30 = and i32 %29, 15
  %31 = tail call i32 (ptr, ...) @printf(ptr noundef nonnull dereferenceable(1) @.str.47, i32 noundef %30)
  %indvars.iv.next.i = add nuw nsw i64 %indvars.iv.i, 1
  %exitcond.not.i = icmp eq i64 %indvars.iv.next.i, %wide.trip.count.i
  br i1 %exitcond.not.i, label %Lms_DelayPrint.exit, label %.lr.ph.i, !llvm.loop !12

Lms_DelayPrint.exit:                              ; preds = %.lr.ph.i, %13
  %puts.i = tail call i32 @puts(ptr nonnull dereferenceable(1) @str)
  %indvars.iv.next = add nuw nsw i64 %indvars.iv, 1
  %.val17 = load i32, ptr %5, align 8
  %.val18 = load ptr, ptr %6, align 8
  %32 = getelementptr i8, ptr %.val18, i64 4
  %.val18.val = load i32, ptr %32, align 4
  %33 = sub nsw i32 %.val18.val, %.val17
  %34 = sext i32 %33 to i64
  %35 = icmp slt i64 %indvars.iv.next, %34
  br i1 %35, label %12, label %.critedge, !llvm.loop !13

.critedge:                                        ; preds = %12, %Lms_DelayPrint.exit, %1
  %36 = getelementptr inbounds nuw i8, ptr %2, i64 8
  %37 = load ptr, ptr %36, align 8
  %.not.i = icmp eq ptr %37, null
  br i1 %.not.i, label %Vec_WrdFree.exit, label %38

38:                                               ; preds = %.critedge
  tail call void @free(ptr noundef nonnull %37) #25
  br label %Vec_WrdFree.exit

Vec_WrdFree.exit:                                 ; preds = %.critedge, %38
  tail call void @free(ptr noundef nonnull %2) #25
  %39 = getelementptr inbounds nuw i8, ptr %3, i64 8
  %40 = load ptr, ptr %39, align 8
  %.not.i21 = icmp eq ptr %40, null
  br i1 %.not.i21, label %Vec_StrFree.exit, label %41

41:                                               ; preds = %Vec_WrdFree.exit
  tail call void @free(ptr noundef nonnull %40) #25
  br label %Vec_StrFree.exit

Vec_StrFree.exit:                                 ; preds = %Vec_WrdFree.exit, %41
  tail call void @free(ptr noundef nonnull %3) #25
  ret void
}